target datalayout = "e-m:e-p270:32:32-p271:32:32-p272:64:64-i64:64-i128:128-f80:128-n8:16:32:64-S128"
target triple = "x86_64-pc-linux-gnu"

%struct.HUF_CTableHeader = type { i8, i8, [6 x i8] }

; Function Attrs: nounwind uwtable
define internal void @HUF_setValue(ptr noundef %0, i64 noundef %1) #0 {
  %3 = alloca ptr, align 8
  %4 = alloca i64, align 8
  %5 = alloca i64, align 8
  store ptr %0, ptr %3, align 8, !tbaa !3
  store i64 %1, ptr %4, align 8, !tbaa !9
  call void @llvm.lifetime.start.p0(i64 8, ptr %5) #9
  %6 = load ptr, ptr %3, align 8, !tbaa !3
  %7 = load i64, ptr %6, align 8, !tbaa !9
  %8 = call i64 @HUF_getNbBits(i64 noundef %7)
  store i64 %8, ptr %5, align 8, !tbaa !9
  %9 = load i64, ptr %5, align 8, !tbaa !9
  %10 = icmp ugt i64 %9, 0
  br i1 %10, label %11, label %19

11:                                               ; preds = %2
  %12 = load i64, ptr %4, align 8, !tbaa !9
  %13 = load i64, ptr %5, align 8, !tbaa !9
  %14 = sub i64 64, %13
  %15 = shl i64 %12, %14
  %16 = load ptr, ptr %3, align 8, !tbaa !3
  %17 = load i64, ptr %16, align 8, !tbaa !9
  %18 = or i64 %17, %15
  store i64 %18, ptr %16, align 8, !tbaa !9
  br label %19

19:                                               ; preds = %11, %2
  call void @llvm.lifetime.end.p0(i64 8, ptr %5) #9
  ret void
}

; Function Attrs: nounwind uwtable
define internal i64 @HUF_getNbBits(i64 noundef %0) #0 {
  %2 = alloca i64, align 8
  store i64 %0, ptr %2, align 8, !tbaa !9
  %3 = load i64, ptr %2, align 8, !tbaa !9
  %4 = and i64 %3, 255
  ret i64 %4
}

; Function Attrs: nounwind uwtable
define internal void @HUF_setNbBits(ptr noundef %0, i64 noundef %1) #0 {
  %3 = alloca ptr, align 8
  %4 = alloca i64, align 8
  store ptr %0, ptr %3, align 8, !tbaa !3
  store i64 %1, ptr %4, align 8, !tbaa !9
  %5 = load i64, ptr %4, align 8, !tbaa !9
  %6 = load ptr, ptr %3, align 8, !tbaa !3
  store i64 %5, ptr %6, align 8, !tbaa !9
  ret void
}

; Function Attrs: nounwind uwtable
define internal void @HUF_writeCTableHeader(ptr noundef %0, i32 noundef %1, i32 noundef %2) #0 {
  %4 = alloca ptr, align 8
  %5 = alloca i32, align 4
  %6 = alloca i32, align 4
  %7 = alloca %struct.HUF_CTableHeader, align 1
  store ptr %0, ptr %4, align 8, !tbaa !3
  store i32 %1, ptr %5, align 4, !tbaa !11
  store i32 %2, ptr %6, align 4, !tbaa !11
  call void @llvm.lifetime.start.p0(i64 8, ptr %7) #9
  call void @llvm.memset.p0.i64(ptr align 1 %7, i8 0, i64 8, i1 false)
  %8 = load i32, ptr %5, align 4, !tbaa !11
  %9 = trunc i32 %8 to i8
  %10 = getelementptr inbounds nuw %struct.HUF_CTableHeader, ptr %7, i32 0, i32 0
  store i8 %9, ptr %10, align 1, !tbaa !29
  %11 = load i32, ptr %6, align 4, !tbaa !11
  %12 = trunc i32 %11 to i8
  %13 = getelementptr inbounds nuw %struct.HUF_CTableHeader, ptr %7, i32 0, i32 1
  store i8 %12, ptr %13, align 1, !tbaa !31
  %14 = load ptr, ptr %4, align 8, !tbaa !3
  call void @llvm.memcpy.p0.p0.i64(ptr align 8 %14, ptr align 1 %7, i64 8, i1 false)
  call void @llvm.lifetime.end.p0(i64 8, ptr %7) #9
  ret void
}

; Function Attrs: nounwind uwtable
define internal i32 @ERR_isError(i64 noundef %0) #0 {
  %2 = alloca i64, align 8
  store i64 %0, ptr %2, align 8, !tbaa !9
  %3 = load i64, ptr %2, align 8, !tbaa !9
  %4 = icmp ugt i64 %3, -120
  %5 = zext i1 %4 to i32
  ret i32 %5
}

; Function Attrs: nounwind uwtable
define i64 @HUF_readCTable(ptr noundef %0, ptr noundef %1, ptr noundef %2, i64 noundef %3, ptr noundef %4) #0 {
  %6 = alloca i64, align 8
  %7 = alloca ptr, align 8
  %8 = alloca ptr, align 8
  %9 = alloca ptr, align 8
  %10 = alloca i64, align 8
  %11 = alloca ptr, align 8
  %12 = alloca [256 x i8], align 16
  %13 = alloca [13 x i32], align 16
  %14 = alloca i32, align 4
  %15 = alloca i32, align 4
  %16 = alloca ptr, align 8
  %17 = alloca i64, align 8
  %18 = alloca i32, align 4
  %19 = alloca i32, align 4
  %20 = alloca i32, align 4
  %21 = alloca i32, align 4
  %22 = alloca i32, align 4
  %23 = alloca i32, align 4
  %24 = alloca [14 x i16], align 16
  %25 = alloca [14 x i16], align 16
  %26 = alloca i32, align 4
  %27 = alloca i16, align 2
  %28 = alloca i32, align 4
  %29 = alloca i32, align 4
  store ptr %0, ptr %7, align 8, !tbaa !3
  store ptr %1, ptr %8, align 8, !tbaa !20
  store ptr %2, ptr %9, align 8, !tbaa !8
  store i64 %3, ptr %10, align 8, !tbaa !9
  store ptr %4, ptr %11, align 8, !tbaa !20
  call void @llvm.lifetime.start.p0(i64 256, ptr %12) #9
  call void @llvm.lifetime.start.p0(i64 52, ptr %13) #9
  call void @llvm.lifetime.start.p0(i64 4, ptr %14) #9
  store i32 0, ptr %14, align 4, !tbaa !11
  call void @llvm.lifetime.start.p0(i64 4, ptr %15) #9
  store i32 0, ptr %15, align 4, !tbaa !11
  call void @llvm.lifetime.start.p0(i64 8, ptr %16) #9
  %30 = load ptr, ptr %7, align 8, !tbaa !3
  %31 = getelementptr inbounds i64, ptr %30, i64 1
  store ptr %31, ptr %16, align 8, !tbaa !3
  call void @llvm.lifetime.start.p0(i64 8, ptr %17) #9
  %32 = getelementptr inbounds [256 x i8], ptr %12, i64 0, i64 0
  %33 = getelementptr inbounds [13 x i32], ptr %13, i64 0, i64 0
  %34 = load ptr, ptr %9, align 8, !tbaa !8
  %35 = load i64, ptr %10, align 8, !tbaa !9
  %36 = call i64 @HUF_readStats(ptr noundef %32, i64 noundef 256, ptr noundef %33, ptr noundef %15, ptr noundef %14, ptr noundef %34, i64 noundef %35)
  store i64 %36, ptr %17, align 8, !tbaa !9
  br label %37

37:                                               ; preds = %5
  %38 = load i64, ptr %17, align 8, !tbaa !9
  %39 = call i32 @ERR_isError(i64 noundef %38)
  %40 = icmp ne i32 %39, 0
  br i1 %40, label %41, label %43

41:                                               ; preds = %37
  %42 = load i64, ptr %17, align 8, !tbaa !9
  store i64 %42, ptr %6, align 8
  store i32 1, ptr %18, align 4
  br label %194

43:                                               ; preds = %37
  br label %44

44:                                               ; preds = %43
  br label %45

45:                                               ; preds = %44
  %46 = getelementptr inbounds [13 x i32], ptr %13, i64 0, i64 0
  %47 = load i32, ptr %46, align 16, !tbaa !11
  %48 = icmp ugt i32 %47, 0
  %49 = zext i1 %48 to i32
  %50 = load ptr, ptr %11, align 8, !tbaa !20
  store i32 %49, ptr %50, align 4, !tbaa !11
  %51 = load i32, ptr %14, align 4, !tbaa !11
  %52 = icmp ugt i32 %51, 12
  br i1 %52, label %53, label %54

53:                                               ; preds = %45
  store i64 -44, ptr %6, align 8
  store i32 1, ptr %18, align 4
  br label %194

54:                                               ; preds = %45
  %55 = load i32, ptr %15, align 4, !tbaa !11
  %56 = load ptr, ptr %8, align 8, !tbaa !20
  %57 = load i32, ptr %56, align 4, !tbaa !11
  %58 = add i32 %57, 1
  %59 = icmp ugt i32 %55, %58
  br i1 %59, label %60, label %61

60:                                               ; preds = %54
  store i64 -48, ptr %6, align 8
  store i32 1, ptr %18, align 4
  br label %194

61:                                               ; preds = %54
  %62 = load i32, ptr %15, align 4, !tbaa !11
  %63 = sub i32 %62, 1
  %64 = load ptr, ptr %8, align 8, !tbaa !20
  store i32 %63, ptr %64, align 4, !tbaa !11
  %65 = load ptr, ptr %7, align 8, !tbaa !3
  %66 = load i32, ptr %14, align 4, !tbaa !11
  %67 = load ptr, ptr %8, align 8, !tbaa !20
  %68 = load i32, ptr %67, align 4, !tbaa !11
  call void @HUF_writeCTableHeader(ptr noundef %65, i32 noundef %66, i32 noundef %68)
  call void @llvm.lifetime.start.p0(i64 4, ptr %19) #9
  call void @llvm.lifetime.start.p0(i64 4, ptr %20) #9
  store i32 0, ptr %20, align 4, !tbaa !11
  store i32 1, ptr %19, align 4, !tbaa !11
  br label %69

69:                                               ; preds = %88, %61
  %70 = load i32, ptr %19, align 4, !tbaa !11
  %71 = load i32, ptr %14, align 4, !tbaa !11
  %72 = icmp ule i32 %70, %71
  br i1 %72, label %73, label %91

73:                                               ; preds = %69
  call void @llvm.lifetime.start.p0(i64 4, ptr %21) #9
  %74 = load i32, ptr %20, align 4, !tbaa !11
  store i32 %74, ptr %21, align 4, !tbaa !11
  %75 = load i32, ptr %19, align 4, !tbaa !11
  %76 = zext i32 %75 to i64
  %77 = getelementptr inbounds nuw [13 x i32], ptr %13, i64 0, i64 %76
  %78 = load i32, ptr %77, align 4, !tbaa !11
  %79 = load i32, ptr %19, align 4, !tbaa !11
  %80 = sub i32 %79, 1
  %81 = shl i32 %78, %80
  %82 = load i32, ptr %20, align 4, !tbaa !11
  %83 = add i32 %82, %81
  store i32 %83, ptr %20, align 4, !tbaa !11
  %84 = load i32, ptr %21, align 4, !tbaa !11
  %85 = load i32, ptr %19, align 4, !tbaa !11
  %86 = zext i32 %85 to i64
  %87 = getelementptr inbounds nuw [13 x i32], ptr %13, i64 0, i64 %86
  store i32 %84, ptr %87, align 4, !tbaa !11
  call void @llvm.lifetime.end.p0(i64 4, ptr %21) #9
  br label %88

88:                                               ; preds = %73
  %89 = load i32, ptr %19, align 4, !tbaa !11
  %90 = add i32 %89, 1
  store i32 %90, ptr %19, align 4, !tbaa !11
  br label %69, !llvm.loop !22

91:                                               ; preds = %69
  call void @llvm.lifetime.end.p0(i64 4, ptr %20) #9
  call void @llvm.lifetime.end.p0(i64 4, ptr %19) #9
  call void @llvm.lifetime.start.p0(i64 4, ptr %22) #9
  store i32 0, ptr %22, align 4, !tbaa !11
  br label %92

92:                                               ; preds = %118, %91
  %93 = load i32, ptr %22, align 4, !tbaa !11
  %94 = load i32, ptr %15, align 4, !tbaa !11
  %95 = icmp ult i32 %93, %94
  br i1 %95, label %96, label %121

96:                                               ; preds = %92
  call void @llvm.lifetime.start.p0(i64 4, ptr %23) #9
  %97 = load i32, ptr %22, align 4, !tbaa !11
  %98 = zext i32 %97 to i64
  %99 = getelementptr inbounds nuw [256 x i8], ptr %12, i64 0, i64 %98
  %100 = load i8, ptr %99, align 1, !tbaa !15
  %101 = zext i8 %100 to i32
  store i32 %101, ptr %23, align 4, !tbaa !11
  %102 = load ptr, ptr %16, align 8, !tbaa !3
  %103 = load i32, ptr %22, align 4, !tbaa !11
  %104 = zext i32 %103 to i64
  %105 = getelementptr inbounds nuw i64, ptr %102, i64 %104
  %106 = load i32, ptr %14, align 4, !tbaa !11
  %107 = add i32 %106, 1
  %108 = load i32, ptr %23, align 4, !tbaa !11
  %109 = sub i32 %107, %108
  %110 = trunc i32 %109 to i8
  %111 = zext i8 %110 to i32
  %112 = load i32, ptr %23, align 4, !tbaa !11
  %113 = icmp ne i32 %112, 0
  %114 = zext i1 %113 to i32
  %115 = sub nsw i32 0, %114
  %116 = and i32 %111, %115
  %117 = sext i32 %116 to i64
  call void @HUF_setNbBits(ptr noundef %105, i64 noundef %117)
  call void @llvm.lifetime.end.p0(i64 4, ptr %23) #9
  br label %118

118:                                              ; preds = %96
  %119 = load i32, ptr %22, align 4, !tbaa !11
  %120 = add i32 %119, 1
  store i32 %120, ptr %22, align 4, !tbaa !11
  br label %92, !llvm.loop !23

121:                                              ; preds = %92
  call void @llvm.lifetime.end.p0(i64 4, ptr %22) #9
  call void @llvm.lifetime.start.p0(i64 28, ptr %24) #9
  call void @llvm.memset.p0.i64(ptr align 16 %24, i8 0, i64 28, i1 false)
  call void @llvm.lifetime.start.p0(i64 28, ptr %25) #9
  call void @llvm.memset.p0.i64(ptr align 16 %25, i8 0, i64 28, i1 false)
  call void @llvm.lifetime.start.p0(i64 4, ptr %26) #9
  store i32 0, ptr %26, align 4, !tbaa !11
  br label %122

122:                                              ; preds = %136, %121
  %123 = load i32, ptr %26, align 4, !tbaa !11
  %124 = load i32, ptr %15, align 4, !tbaa !11
  %125 = icmp ult i32 %123, %124
  br i1 %125, label %126, label %139

126:                                              ; preds = %122
  %127 = load ptr, ptr %16, align 8, !tbaa !3
  %128 = load i32, ptr %26, align 4, !tbaa !11
  %129 = zext i32 %128 to i64
  %130 = getelementptr inbounds nuw i64, ptr %127, i64 %129
  %131 = load i64, ptr %130, align 8, !tbaa !9
  %132 = call i64 @HUF_getNbBits(i64 noundef %131)
  %133 = getelementptr inbounds nuw [14 x i16], ptr %24, i64 0, i64 %132
  %134 = load i16, ptr %133, align 2, !tbaa !24
  %135 = add i16 %134, 1
  store i16 %135, ptr %133, align 2, !tbaa !24
  br label %136

136:                                              ; preds = %126
  %137 = load i32, ptr %26, align 4, !tbaa !11
  %138 = add i32 %137, 1
  store i32 %138, ptr %26, align 4, !tbaa !11
  br label %122, !llvm.loop !26

139:                                              ; preds = %122
  call void @llvm.lifetime.end.p0(i64 4, ptr %26) #9
  %140 = load i32, ptr %14, align 4, !tbaa !11
  %141 = add i32 %140, 1
  %142 = zext i32 %141 to i64
  %143 = getelementptr inbounds nuw [14 x i16], ptr %25, i64 0, i64 %142
  store i16 0, ptr %143, align 2, !tbaa !24
  call void @llvm.lifetime.start.p0(i64 2, ptr %27) #9
  store i16 0, ptr %27, align 2, !tbaa !24
  call void @llvm.lifetime.start.p0(i64 4, ptr %28) #9
  %144 = load i32, ptr %14, align 4, !tbaa !11
  store i32 %144, ptr %28, align 4, !tbaa !11
  br label %145

145:                                              ; preds = %166, %139
  %146 = load i32, ptr %28, align 4, !tbaa !11
  %147 = icmp ugt i32 %146, 0
  br i1 %147, label %148, label %169

148:                                              ; preds = %145
  %149 = load i16, ptr %27, align 2, !tbaa !24
  %150 = load i32, ptr %28, align 4, !tbaa !11
  %151 = zext i32 %150 to i64
  %152 = getelementptr inbounds nuw [14 x i16], ptr %25, i64 0, i64 %151
  store i16 %149, ptr %152, align 2, !tbaa !24
  %153 = load i32, ptr %28, align 4, !tbaa !11
  %154 = zext i32 %153 to i64
  %155 = getelementptr inbounds nuw [14 x i16], ptr %24, i64 0, i64 %154
  %156 = load i16, ptr %155, align 2, !tbaa !24
  %157 = zext i16 %156 to i32
  %158 = load i16, ptr %27, align 2, !tbaa !24
  %159 = zext i16 %158 to i32
  %160 = add nsw i32 %159, %157
  %161 = trunc i32 %160 to i16
  store i16 %161, ptr %27, align 2, !tbaa !24
  %162 = load i16, ptr %27, align 2, !tbaa !24
  %163 = zext i16 %162 to i32
  %164 = ashr i32 %163, 1
  %165 = trunc i32 %164 to i16
  store i16 %165, ptr %27, align 2, !tbaa !24
  br label %166

166:                                              ; preds = %148
  %167 = load i32, ptr %28, align 4, !tbaa !11
  %168 = add i32 %167, -1
  store i32 %168, ptr %28, align 4, !tbaa !11
  br label %145, !llvm.loop !27

169:                                              ; preds = %145
  call void @llvm.lifetime.end.p0(i64 4, ptr %28) #9
  call void @llvm.lifetime.end.p0(i64 2, ptr %27) #9
  call void @llvm.lifetime.start.p0(i64 4, ptr %29) #9
  store i32 0, ptr %29, align 4, !tbaa !11
  br label %170

170:                                              ; preds = %189, %169
  %171 = load i32, ptr %29, align 4, !tbaa !11
  %172 = load i32, ptr %15, align 4, !tbaa !11
  %173 = icmp ult i32 %171, %172
  br i1 %173, label %174, label %192

174:                                              ; preds = %170
  %175 = load ptr, ptr %16, align 8, !tbaa !3
  %176 = load i32, ptr %29, align 4, !tbaa !11
  %177 = zext i32 %176 to i64
  %178 = getelementptr inbounds nuw i64, ptr %175, i64 %177
  %179 = load ptr, ptr %16, align 8, !tbaa !3
  %180 = load i32, ptr %29, align 4, !tbaa !11
  %181 = zext i32 %180 to i64
  %182 = getelementptr inbounds nuw i64, ptr %179, i64 %181
  %183 = load i64, ptr %182, align 8, !tbaa !9
  %184 = call i64 @HUF_getNbBits(i64 noundef %183)
  %185 = getelementptr inbounds nuw [14 x i16], ptr %25, i64 0, i64 %184
  %186 = load i16, ptr %185, align 2, !tbaa !24
  %187 = add i16 %186, 1
  store i16 %187, ptr %185, align 2, !tbaa !24
  %188 = zext i16 %186 to i64
  call void @HUF_setValue(ptr noundef %178, i64 noundef %188)
  br label %189

189:                                              ; preds = %174
  %190 = load i32, ptr %29, align 4, !tbaa !11
  %191 = add i32 %190, 1
  store i32 %191, ptr %29, align 4, !tbaa !11
  br label %170, !llvm.loop !28

192:                                              ; preds = %170
  call void @llvm.lifetime.end.p0(i64 4, ptr %29) #9
  call void @llvm.lifetime.end.p0(i64 28, ptr %25) #9
  call void @llvm.lifetime.end.p0(i64 28, ptr %24) #9
  %193 = load i64, ptr %17, align 8, !tbaa !9
  store i64 %193, ptr %6, align 8
  store i32 1, ptr %18, align 4
  br label %194

194:                                              ; preds = %192, %60, %53, %41
  call void @llvm.lifetime.end.p0(i64 8, ptr %17) #9
  call void @llvm.lifetime.end.p0(i64 8, ptr %16) #9
  call void @llvm.lifetime.end.p0(i64 4, ptr %15) #9
  call void @llvm.lifetime.end.p0(i64 4, ptr %14) #9
  call void @llvm.lifetime.end.p0(i64 52, ptr %13) #9
  call void @llvm.lifetime.end.p0(i64 256, ptr %12) #9
  %195 = load i64, ptr %6, align 8
  ret i64 %195
}