; Function Attrs: nounwind uwtable
define i64 @HUF_readCTable(ptr noundef captures(none) %0, ptr noundef captures(none) %1, ptr noundef %2, i64 noundef %3, ptr noundef writeonly captures(none) %4) local_unnamed_addr #2 {
  %6 = alloca [256 x i8], align 16
  %7 = alloca [13 x i32], align 16
  %8 = alloca i32, align 4
  %9 = alloca i32, align 4
  %10 = alloca [14 x i16], align 16
  %11 = alloca [14 x i16], align 16
  call void @llvm.lifetime.start.p0(i64 256, ptr nonnull %6) #14
  call void @llvm.lifetime.start.p0(i64 52, ptr nonnull %7) #14
  call void @llvm.lifetime.start.p0(i64 4, ptr nonnull %8) #14
  store i32 0, ptr %8, align 4, !tbaa !11
  call void @llvm.lifetime.start.p0(i64 4, ptr nonnull %9) #14
  store i32 0, ptr %9, align 4, !tbaa !11
  %12 = getelementptr inbounds nuw i8, ptr %0, i64 8
  %13 = call i64 @HUF_readStats(ptr noundef nonnull %6, i64 noundef 256, ptr noundef nonnull %7, ptr noundef nonnull %9, ptr noundef nonnull %8, ptr noundef %2, i64 noundef %3) #14
  %14 = icmp ult i64 %13, -119
  br i1 %14, label %15, label %71

15:                                               ; preds = %5
  %16 = load i32, ptr %7, align 16, !tbaa !11
  %17 = icmp ne i32 %16, 0
  %18 = zext i1 %17 to i32
  store i32 %18, ptr %4, align 4, !tbaa !11
  %19 = load i32, ptr %8, align 4, !tbaa !11
  %20 = icmp ugt i32 %19, 12
  br i1 %20, label %71, label %21

21:                                               ; preds = %15
  %22 = load i32, ptr %9, align 4, !tbaa !11
  %23 = load i32, ptr %1, align 4, !tbaa !11
  %24 = add i32 %23, 1
  %25 = icmp ugt i32 %22, %24
  br i1 %25, label %71, label %26

26:                                               ; preds = %21
  %27 = add i32 %22, -1
  store i32 %27, ptr %1, align 4, !tbaa !11
  %28 = trunc nuw i32 %19 to i8
  %29 = trunc i32 %27 to i8
  store i8 %28, ptr %0, align 8
  %.sroa.5.0..sroa_idx.i = getelementptr inbounds nuw i8, ptr %0, i64 1
  store i8 %29, ptr %.sroa.5.0..sroa_idx.i, align 1
  %.sroa.6.0..sroa_idx.i = getelementptr inbounds nuw i8, ptr %0, i64 2
  call void @llvm.memset.p0.i64(ptr noundef nonnull align 2 dereferenceable(6) %.sroa.6.0..sroa_idx.i, i8 0, i64 6, i1 false)
  %.not5155 = icmp eq i32 %19, 0
  br i1 %.not5155, label %.preheader54, label %.lr.ph.preheader

.lr.ph.preheader:                                 ; preds = %26
  %30 = add nuw nsw i32 %19, 1
  %wide.trip.count = zext nneg i32 %30 to i64
  br label %.lr.ph

.preheader54:                                     ; preds = %.lr.ph, %26
  %.not = icmp eq i32 %22, 0
  br i1 %.not, label %._crit_edge.thread, label %.lr.ph59

._crit_edge.thread:                               ; preds = %.preheader54
  call void @llvm.lifetime.start.p0(i64 28, ptr nonnull %10) #14
  call void @llvm.memset.p0.i64(ptr noundef nonnull align 16 dereferenceable(28) %10, i8 0, i64 28, i1 false)
  call void @llvm.lifetime.start.p0(i64 28, ptr nonnull %11) #14
  call void @llvm.memset.p0.i64(ptr noundef nonnull align 16 dereferenceable(28) %11, i8 0, i64 28, i1 false)
  br label %._crit_edge63

.lr.ph59:                                         ; preds = %.preheader54
  %31 = add nuw nsw i8 %28, 1
  %wide.trip.count78 = zext i32 %22 to i64
  br label %38

.lr.ph:                                           ; preds = %.lr.ph.preheader, %.lr.ph
  %indvars.iv = phi i64 [ 1, %.lr.ph.preheader ], [ %indvars.iv.next, %.lr.ph ]
  %.04857 = phi i32 [ 0, %.lr.ph.preheader ], [ %37, %.lr.ph ]
  %32 = getelementptr inbounds nuw [13 x i32], ptr %7, i64 0, i64 %indvars.iv
  %33 = load i32, ptr %32, align 4, !tbaa !11
  %34 = trunc i64 %indvars.iv to i32
  %35 = add i32 %34, -1
  %36 = shl i32 %33, %35
  %37 = add i32 %36, %.04857
  store i32 %.04857, ptr %32, align 4, !tbaa !11
  %indvars.iv.next = add nuw nsw i64 %indvars.iv, 1
  %exitcond = icmp eq i64 %indvars.iv.next, %wide.trip.count
  br i1 %exitcond, label %.preheader54, label %.lr.ph, !llvm.loop !14

38:                                               ; preds = %.lr.ph59, %38
  %indvars.iv75 = phi i64 [ 0, %.lr.ph59 ], [ %indvars.iv.next76, %38 ]
  %39 = getelementptr inbounds nuw [256 x i8], ptr %6, i64 0, i64 %indvars.iv75
  %40 = load i8, ptr %39, align 1, !tbaa !3
  %41 = getelementptr inbounds nuw i64, ptr %12, i64 %indvars.iv75
  %42 = sub i8 %31, %40
  %.not53 = icmp eq i8 %40, 0
  %narrow = select i1 %.not53, i8 0, i8 %42
  %43 = zext i8 %narrow to i64
  store i64 %43, ptr %41, align 8, !tbaa !8
  %indvars.iv.next76 = add nuw nsw i64 %indvars.iv75, 1
  %exitcond79.not = icmp eq i64 %indvars.iv.next76, %wide.trip.count78
  br i1 %exitcond79.not, label %._crit_edge, label %38, !llvm.loop !15

._crit_edge:                                      ; preds = %38
  call void @llvm.lifetime.start.p0(i64 28, ptr nonnull %10) #14
  call void @llvm.memset.p0.i64(ptr noundef nonnull align 16 dereferenceable(28) %10, i8 0, i64 28, i1 false)
  call void @llvm.lifetime.start.p0(i64 28, ptr nonnull %11) #14
  call void @llvm.memset.p0.i64(ptr noundef nonnull align 16 dereferenceable(28) %11, i8 0, i64 28, i1 false)
  %wide.trip.count83 = zext i32 %22 to i64
  br label %.lr.ph62

.lr.ph62:                                         ; preds = %._crit_edge, %.lr.ph62
  %indvars.iv80 = phi i64 [ 0, %._crit_edge ], [ %indvars.iv.next81, %.lr.ph62 ]
  %44 = getelementptr inbounds nuw i64, ptr %12, i64 %indvars.iv80
  %45 = load i64, ptr %44, align 8, !tbaa !8
  %46 = and i64 %45, 255
  %47 = getelementptr inbounds nuw [14 x i16], ptr %10, i64 0, i64 %46
  %48 = load i16, ptr %47, align 2, !tbaa !16
  %49 = add i16 %48, 1
  store i16 %49, ptr %47, align 2, !tbaa !16
  %indvars.iv.next81 = add nuw nsw i64 %indvars.iv80, 1
  %exitcond84.not = icmp eq i64 %indvars.iv.next81, %wide.trip.count83
  br i1 %exitcond84.not, label %._crit_edge63, label %.lr.ph62, !llvm.loop !18

._crit_edge63:                                    ; preds = %.lr.ph62, %._crit_edge.thread
  %50 = add nuw nsw i32 %19, 1
  %51 = zext nneg i32 %50 to i64
  %52 = getelementptr inbounds nuw [14 x i16], ptr %11, i64 0, i64 %51
  store i16 0, ptr %52, align 2, !tbaa !16
  br i1 %.not5155, label %.preheader, label %.lr.ph68.preheader

.lr.ph68.preheader:                               ; preds = %._crit_edge63
  %53 = zext nneg i32 %19 to i64
  br label %.lr.ph68

.preheader:                                       ; preds = %.lr.ph68, %._crit_edge63
  br i1 %.not, label %._crit_edge71, label %.lr.ph70.preheader

.lr.ph70.preheader:                               ; preds = %.preheader
  %wide.trip.count90 = zext i32 %22 to i64
  br label %.lr.ph70

.lr.ph68:                                         ; preds = %.lr.ph68.preheader, %.lr.ph68
  %indvars.iv85 = phi i64 [ %53, %.lr.ph68.preheader ], [ %indvars.iv.next86, %.lr.ph68 ]
  %.04366 = phi i32 [ %19, %.lr.ph68.preheader ], [ %59, %.lr.ph68 ]
  %.04465 = phi i16 [ 0, %.lr.ph68.preheader ], [ %58, %.lr.ph68 ]
  %54 = getelementptr inbounds nuw [14 x i16], ptr %11, i64 0, i64 %indvars.iv85
  store i16 %.04465, ptr %54, align 2, !tbaa !16
  %55 = getelementptr inbounds nuw [14 x i16], ptr %10, i64 0, i64 %indvars.iv85
  %56 = load i16, ptr %55, align 2, !tbaa !16
  %57 = add i16 %56, %.04465
  %58 = lshr i16 %57, 1
  %59 = add i32 %.04366, -1
  %.not52 = icmp eq i32 %59, 0
  %indvars.iv.next86 = add nsw i64 %indvars.iv85, -1
  br i1 %.not52, label %.preheader, label %.lr.ph68, !llvm.loop !19

.lr.ph70:                                         ; preds = %.lr.ph70.preheader, %HUF_setValue.exit
  %indvars.iv87 = phi i64 [ 0, %.lr.ph70.preheader ], [ %indvars.iv.next88, %HUF_setValue.exit ]
  %60 = getelementptr inbounds nuw i64, ptr %12, i64 %indvars.iv87
  %61 = load i64, ptr %60, align 8, !tbaa !8
  %62 = and i64 %61, 255
  %63 = getelementptr inbounds nuw [14 x i16], ptr %11, i64 0, i64 %62
  %64 = load i16, ptr %63, align 2, !tbaa !16
  %65 = add i16 %64, 1
  store i16 %65, ptr %63, align 2, !tbaa !16
  %.not.i = icmp eq i64 %62, 0
  br i1 %.not.i, label %HUF_setValue.exit, label %66

66:                                               ; preds = %.lr.ph70
  %67 = zext i16 %64 to i64
  %68 = sub nsw i64 64, %62
  %69 = shl i64 %67, %68
  %70 = or i64 %69, %61
  store i64 %70, ptr %60, align 8, !tbaa !8
  br label %HUF_setValue.exit

HUF_setValue.exit:                                ; preds = %.lr.ph70, %66
  %indvars.iv.next88 = add nuw nsw i64 %indvars.iv87, 1
  %exitcond91.not = icmp eq i64 %indvars.iv.next88, %wide.trip.count90
  br i1 %exitcond91.not, label %._crit_edge71, label %.lr.ph70, !llvm.loop !20

._crit_edge71:                                    ; preds = %HUF_setValue.exit, %.preheader
  call void @llvm.lifetime.end.p0(i64 28, ptr nonnull %11) #14
  call void @llvm.lifetime.end.p0(i64 28, ptr nonnull %10) #14
  br label %71

71:                                               ; preds = %21, %15, %5, %._crit_edge71
  %.046 = phi i64 [ %13, %._crit_edge71 ], [ %13, %5 ], [ -44, %15 ], [ -48, %21 ]
  call void @llvm.lifetime.end.p0(i64 4, ptr nonnull %9) #14
  call void @llvm.lifetime.end.p0(i64 4, ptr nonnull %8) #14
  call void @llvm.lifetime.end.p0(i64 52, ptr nonnull %7) #14
  call void @llvm.lifetime.end.p0(i64 256, ptr nonnull %6) #14
  ret i64 %.046
}